; Function Attrs: mustprogress nofree nounwind willreturn memory(read, argmem: readwrite, inaccessiblemem: none) uwtable
define dso_local void @_ZNK5clang13HeaderMapImpl9getStringEj(ptr dead_on_unwind noalias nocapture writable writeonly sret(%"class.std::optional.64") align 8 %0, ptr nocapture noundef nonnull readonly align 8 dereferenceable(40) %1, i32 noundef %2) local_unnamed_addr #7 align 2 {
  %4 = load ptr, ptr %1, align 8
  %5 = getelementptr inbounds nuw i8, ptr %4, i64 8
  %6 = load ptr, ptr %5, align 8
  %7 = getelementptr inbounds nuw i8, ptr %6, i64 8
  %8 = load i32, ptr %7, align 4
  %9 = getelementptr inbounds nuw i8, ptr %1, i64 8
  %10 = load i8, ptr %9, align 8
  %11 = trunc i8 %10 to i1
  %12 = tail call i32 @llvm.bswap.i32(i32 %8)
  %spec.select.i = select i1 %11, i32 %12, i32 %8
  %13 = add i32 %spec.select.i, %2
  %14 = zext i32 %13 to i64
  %15 = getelementptr inbounds nuw i8, ptr %4, i64 16
  %16 = load ptr, ptr %15, align 8
  %17 = ptrtoint ptr %16 to i64
  %18 = ptrtoint ptr %6 to i64
  %19 = sub i64 %17, %18
  %.not = icmp ugt i64 %19, %14
  br i1 %.not, label %20, label %35

20:                                               ; preds = %3
  %21 = getelementptr inbounds i8, ptr %6, i64 %14
  %22 = trunc i64 %19 to i32
  %23 = sub i32 %22, %13
  %24 = zext i32 %23 to i64
  %25 = tail call i64 @strnlen(ptr noundef %21, i64 noundef %24) #16
  %26 = trunc i64 %25 to i32
  %27 = icmp eq i32 %23, %26
  br i1 %27, label %28, label %33

28:                                               ; preds = %20
  %29 = add i64 %25, 4294967295
  %30 = and i64 %29, 4294967295
  %31 = getelementptr inbounds i8, ptr %21, i64 %30
  %32 = load i8, ptr %31, align 1
  %.not13 = icmp eq i8 %32, 0
  br i1 %.not13, label %33, label %35

33:                                               ; preds = %28, %20
  %34 = and i64 %25, 4294967295
  store ptr %21, ptr %0, align 8
  %.sroa.2.0..sroa_idx = getelementptr inbounds i8, ptr %0, i64 8
  store i64 %34, ptr %.sroa.2.0..sroa_idx, align 8
  br label %35

35:                                               ; preds = %28, %3, %33
  %.sink = phi i8 [ 1, %33 ], [ 0, %3 ], [ 0, %28 ]
  %36 = getelementptr inbounds nuw i8, ptr %0, i64 16
  store i8 %.sink, ptr %36, align 8
  ret void
}